target datalayout = "e-m:e-p270:32:32-p271:32:32-p272:64:64-i64:64-i128:128-f80:128-n8:16:32:64-S128"
target triple = "x86_64-pc-linux-gnu"

@.str.1 = private unnamed_addr constant [31 x i8] c"Unable to create '%s.lock': %s\00", align 1
@.str.6 = private unnamed_addr constant [1 x i8] zeroinitializer, align 1
@git_gettext_enabled = external global i32, align 4

; Function Attrs: inlinehint nounwind uwtable
define internal ptr @_(ptr noundef %0) #2 {
  %2 = alloca ptr, align 8
  %3 = alloca ptr, align 8
  store ptr %0, ptr %3, align 8, !tbaa !4
  %4 = load ptr, ptr %3, align 8, !tbaa !4
  %5 = load i8, ptr %4, align 1, !tbaa !13
  %6 = icmp ne i8 %5, 0
  br i1 %6, label %8, label %7

7:                                                ; preds = %1
  store ptr @.str.6, ptr %2, align 8
  br label %16

8:                                                ; preds = %1
  %9 = load i32, ptr @git_gettext_enabled, align 4, !tbaa !9
  %10 = icmp ne i32 %9, 0
  br i1 %10, label %13, label %11

11:                                               ; preds = %8
  %12 = load ptr, ptr %3, align 8, !tbaa !4
  store ptr %12, ptr %2, align 8
  br label %16

13:                                               ; preds = %8
  %14 = load ptr, ptr %3, align 8, !tbaa !4
  %15 = call ptr @dcgettext(ptr noundef null, ptr noundef %14, i32 noundef 5) #10
  store ptr %15, ptr %2, align 8
  br label %16

16:                                               ; preds = %13, %11, %7
  %17 = load ptr, ptr %2, align 8
  ret ptr %17
}

; Function Attrs: nounwind uwtable
define dso_local void @unable_to_lock_message(ptr noundef %0, i32 noundef %1, ptr noundef %2) #0 {
  %4 = alloca ptr, align 8
  %5 = alloca i32, align 4
  %6 = alloca ptr, align 8
  store ptr %0, ptr %4, align 8, !tbaa !4
  store i32 %1, ptr %5, align 4, !tbaa !9
  store ptr %2, ptr %6, align 8, !tbaa !11
  %7 = load i32, ptr %5, align 4, !tbaa !9
  %8 = icmp eq i32 %7, 17
  br i1 %8, label %9, label %16

9:                                                ; preds = %3
  %10 = load ptr, ptr %6, align 8, !tbaa !11
  %11 = call ptr @_(ptr noundef @.str)
  %12 = load ptr, ptr %4, align 8, !tbaa !4
  %13 = call ptr @absolute_path(ptr noundef %12)
  %14 = load i32, ptr %5, align 4, !tbaa !9
  %15 = call ptr @strerror(i32 noundef %14) #10
  call void (ptr, ptr, ...) @strbuf_addf(ptr noundef %10, ptr noundef %11, ptr noundef %13, ptr noundef %15)
  br label %23

16:                                               ; preds = %3
  %17 = load ptr, ptr %6, align 8, !tbaa !11
  %18 = call ptr @_(ptr noundef @.str.1)
  %19 = load ptr, ptr %4, align 8, !tbaa !4
  %20 = call ptr @absolute_path(ptr noundef %19)
  %21 = load i32, ptr %5, align 4, !tbaa !9
  %22 = call ptr @strerror(i32 noundef %21) #10
  call void (ptr, ptr, ...) @strbuf_addf(ptr noundef %17, ptr noundef %18, ptr noundef %20, ptr noundef %22)
  br label %23

23:                                               ; preds = %16, %9
  ret void
}