; Function Attrs: nounwind uwtable
define dso_local void @unable_to_lock_message(ptr noundef %0, i32 noundef %1, ptr noundef %2) local_unnamed_addr #0 {
  %4 = icmp eq i32 %1, 17
  %5 = load i32, ptr @git_gettext_enabled, align 4, !tbaa !4
  %.not4.i = icmp eq i32 %5, 0
  %.str..str.1 = select i1 %4, ptr @.str, ptr @.str.1
  br i1 %.not4.i, label %_.exit, label %_.exit.sink.split

_.exit.sink.split:                                ; preds = %3
  %6 = tail call ptr @dcgettext(ptr noundef null, ptr noundef nonnull %.str..str.1, i32 noundef 5) #11
  br label %_.exit

_.exit:                                           ; preds = %3, %_.exit.sink.split
  %.0.i7.sink = phi ptr [ %6, %_.exit.sink.split ], [ %.str..str.1, %3 ]
  %7 = tail call ptr @absolute_path(ptr noundef %0) #11
  %8 = tail call ptr @strerror(i32 noundef %1) #11
  tail call void (ptr, ptr, ...) @strbuf_addf(ptr noundef %2, ptr noundef %.0.i7.sink, ptr noundef %7, ptr noundef %8) #11
  ret void
}